; Function Attrs: mustprogress uwtable
define hidden noundef i64 @_ZNK6google8protobuf7Message24ComputeUnknownFieldsSizeEmPNS0_8internal10CachedSizeE(ptr noundef nonnull readonly align 8 captures(none) dereferenceable(16) %0, i64 noundef %1, ptr noundef writeonly captures(none) %2) local_unnamed_addr #3 align 2 personality ptr @__gxx_personality_v0 {
  %4 = getelementptr inbounds nuw i8, ptr %0, i64 8
  %5 = load i64, ptr %4, align 8, !tbaa !47
  %6 = and i64 %5, 1
  %.not = icmp eq i64 %6, 0
  br i1 %.not, label %11, label %7, !prof !49

7:                                                ; preds = %3
  %8 = and i64 %5, -4
  %9 = inttoptr i64 %8 to ptr
  %10 = getelementptr inbounds nuw i8, ptr %9, i64 8
  br label %_ZNK6google8protobuf8internal16InternalMetadata14unknown_fieldsINS0_15UnknownFieldSetEEERKT_PFS7_vE.exit

11:                                               ; preds = %3
  %12 = tail call noundef nonnull align 8 dereferenceable(24) ptr @_ZN6google8protobuf15UnknownFieldSet16default_instanceEv()
  br label %_ZNK6google8protobuf8internal16InternalMetadata14unknown_fieldsINS0_15UnknownFieldSetEEERKT_PFS7_vE.exit

_ZNK6google8protobuf8internal16InternalMetadata14unknown_fieldsINS0_15UnknownFieldSetEEERKT_PFS7_vE.exit: ; preds = %7, %11
  %.0.i = phi ptr [ %10, %7 ], [ %12, %11 ]
  %13 = tail call noundef i64 @_ZN6google8protobuf8internal10WireFormat24ComputeUnknownFieldsSizeERKNS0_15UnknownFieldSetE(ptr noundef nonnull align 8 dereferenceable(24) %.0.i)
  %14 = add i64 %13, %1
  %15 = trunc i64 %14 to i32
  store atomic i32 %15, ptr %2 monotonic, align 4
  ret i64 %14
}